target datalayout = "e-m:e-p270:32:32-p271:32:32-p272:64:64-i64:64-i128:128-f80:128-n8:16:32:64-S128"
target triple = "x86_64-pc-linux-gnu"

%struct.eio_handle_components = type { i32, [2 x i32], %union.pthread_mutex_t, i64, i16, ptr, ptr }
%union.pthread_mutex_t = type { %struct.__pthread_mutex_s }
%struct.__pthread_mutex_s = type { i32, i32, i32, i32, i32, i16, i16, %struct.__pthread_internal_list }
%struct.__pthread_internal_list = type { ptr, ptr }

@.str.14 = private unnamed_addr constant [14 x i8] c"%s: write; %m\00", align 1
@__func__.eio_signal_wakeup = private unnamed_addr constant [18 x i8] c"eio_signal_wakeup\00", align 1

; Function Attrs: nounwind uwtable
define dso_local i32 @eio_signal_wakeup(ptr noundef %0) #0 {
  %2 = alloca i32, align 4
  %3 = alloca ptr, align 8
  %4 = alloca i8, align 1
  %5 = alloca i32, align 4
  store ptr %0, ptr %3, align 8
  call void @llvm.lifetime.start.p0(i64 1, ptr %4) #7
  store i8 0, ptr %4, align 1
  %6 = load ptr, ptr %3, align 8
  %7 = getelementptr inbounds nuw %struct.eio_handle_components, ptr %6, i32 0, i32 1
  %8 = getelementptr inbounds [2 x i32], ptr %7, i64 0, i64 1
  %9 = load i32, ptr %8, align 4
  %10 = call i64 @write(i32 noundef %9, ptr noundef %4, i64 noundef 1)
  %11 = icmp ne i64 %10, 1
  br i1 %11, label %12, label %14

12:                                               ; preds = %1
  %13 = call i32 (ptr, ...) @error(ptr noundef @.str.14, ptr noundef @__func__.eio_signal_wakeup)
  store i32 %13, ptr %2, align 4
  store i32 1, ptr %5, align 4
  br label %15

14:                                               ; preds = %1
  store i32 0, ptr %2, align 4
  store i32 1, ptr %5, align 4
  br label %15

15:                                               ; preds = %14, %12
  call void @llvm.lifetime.end.p0(i64 1, ptr %4) #7
  %16 = load i32, ptr %2, align 4
  ret i32 %16
}

; Function Attrs: nounwind uwtable
define dso_local void @eio_new_obj(ptr noundef %0, ptr noundef %1) #0 {
  %3 = alloca ptr, align 8
  %4 = alloca ptr, align 8
  store ptr %0, ptr %3, align 8
  store ptr %1, ptr %4, align 8
  %5 = load ptr, ptr %3, align 8
  %6 = getelementptr inbounds nuw %struct.eio_handle_components, ptr %5, i32 0, i32 6
  %7 = load ptr, ptr %6, align 8
  %8 = load ptr, ptr %4, align 8
  call void @list_enqueue(ptr noundef %7, ptr noundef %8)
  %9 = load ptr, ptr %3, align 8
  %10 = call i32 @eio_signal_wakeup(ptr noundef %9)
  ret void
}