; Function Attrs: nounwind uwtable
define dso_local void @eio_new_obj(ptr noundef readonly captures(none) %0, ptr noundef %1) #0 {
  %3 = alloca i8, align 1
  %4 = getelementptr inbounds nuw i8, ptr %0, i64 80
  %5 = load ptr, ptr %4, align 8
  tail call void @list_enqueue(ptr noundef %5, ptr noundef %1) #10
  call void @llvm.lifetime.start.p0(i64 1, ptr nonnull %3) #10
  store i8 0, ptr %3, align 1
  %6 = getelementptr inbounds nuw i8, ptr %0, i64 8
  %7 = load i32, ptr %6, align 4
  %8 = call i64 @write(i32 noundef %7, ptr noundef nonnull %3, i64 noundef 1) #10
  %.not.i = icmp eq i64 %8, 1
  br i1 %.not.i, label %eio_signal_wakeup.exit, label %9

9:                                                ; preds = %2
  %10 = tail call i32 (ptr, ...) @error(ptr noundef nonnull @.str.14, ptr noundef nonnull @__func__.eio_signal_wakeup) #10
  br label %eio_signal_wakeup.exit

eio_signal_wakeup.exit:                           ; preds = %2, %9
  call void @llvm.lifetime.end.p0(i64 1, ptr nonnull %3) #10
  ret void
}